target datalayout = "e-m:e-p270:32:32-p271:32:32-p272:64:64-i64:64-i128:128-f80:128-n8:16:32:64-S128"
target triple = "x86_64-pc-linux-gnu"

%"class.cv::Mat" = type { i32, i32, i32, i32, ptr, ptr, ptr, ptr, ptr, ptr, %"struct.cv::MatSize", %"struct.cv::MatStep" }
%"struct.cv::MatSize" = type { ptr }
%"struct.cv::MatStep" = type { ptr, [2 x i64] }
%"class.cv::Size_" = type { i32, i32 }
%"class.cv::ParallelLoopBody" = type { ptr }
%"class.cv::Range" = type { i32, i32 }
%"struct.cv::OpAddSqr.48" = type { i8 }
%"struct.cv::OpSqr.49" = type { i8 }
%"class.cv::ReduceC_Invoker.84" = type { %"class.cv::ParallelLoopBody", ptr, ptr, ptr, ptr }

@_ZTVN2cv16ParallelLoopBodyE = available_externally unnamed_addr constant { [5 x ptr] } { [5 x ptr] [ptr null, ptr @_ZTIN2cv16ParallelLoopBodyE, ptr @_ZN2cv16ParallelLoopBodyD1Ev, ptr @_ZN2cv16ParallelLoopBodyD0Ev, ptr @__cxa_pure_virtual] }, align 8

; Function Attrs: inlinehint mustprogress nounwind uwtable
define linkonce_odr hidden void @_ZN2cv5Size_IiEC2Eii(ptr noundef nonnull align 4 dereferenceable(8) %0, i32 noundef %1, i32 noundef %2) unnamed_addr #1 comdat align 2 {
  %4 = alloca ptr, align 8
  %5 = alloca i32, align 4
  %6 = alloca i32, align 4
  store ptr %0, ptr %4, align 8, !tbaa !98
  store i32 %1, ptr %5, align 4, !tbaa !20
  store i32 %2, ptr %6, align 4, !tbaa !20
  %7 = load ptr, ptr %4, align 8
  %8 = getelementptr inbounds nuw %"class.cv::Size_", ptr %7, i32 0, i32 0
  %9 = load i32, ptr %5, align 4, !tbaa !20
  store i32 %9, ptr %8, align 4, !tbaa !100
  %10 = getelementptr inbounds nuw %"class.cv::Size_", ptr %7, i32 0, i32 1
  %11 = load i32, ptr %6, align 4, !tbaa !20
  store i32 %11, ptr %10, align 4, !tbaa !101
  ret void
}

; Function Attrs: inlinehint mustprogress nounwind uwtable
define linkonce_odr hidden void @_ZN2cv16ParallelLoopBodyC2Ev(ptr noundef nonnull align 8 dereferenceable(8) %0) unnamed_addr #1 comdat align 2 {
  %2 = alloca ptr, align 8
  store ptr %0, ptr %2, align 8, !tbaa !237
  %3 = load ptr, ptr %2, align 8
  store ptr getelementptr inbounds inrange(-16, 24) ({ [5 x ptr] }, ptr @_ZTVN2cv16ParallelLoopBodyE, i32 0, i32 0, i32 2), ptr %3, align 8, !tbaa !226
  ret void
}

; Function Attrs: inlinehint mustprogress nounwind uwtable
define linkonce_odr hidden void @_ZN2cv5RangeC2Eii(ptr noundef nonnull align 4 dereferenceable(8) %0, i32 noundef %1, i32 noundef %2) unnamed_addr #1 comdat align 2 {
  %4 = alloca ptr, align 8
  %5 = alloca i32, align 4
  %6 = alloca i32, align 4
  store ptr %0, ptr %4, align 8, !tbaa !232
  store i32 %1, ptr %5, align 4, !tbaa !20
  store i32 %2, ptr %6, align 4, !tbaa !20
  %7 = load ptr, ptr %4, align 8
  %8 = getelementptr inbounds nuw %"class.cv::Range", ptr %7, i32 0, i32 0
  %9 = load i32, ptr %5, align 4, !tbaa !20
  store i32 %9, ptr %8, align 4, !tbaa !234
  %10 = getelementptr inbounds nuw %"class.cv::Range", ptr %7, i32 0, i32 1
  %11 = load i32, ptr %6, align 4, !tbaa !20
  store i32 %11, ptr %10, align 4, !tbaa !236
  ret void
}

; Function Attrs: inlinehint mustprogress uwtable
define linkonce_odr hidden i64 @_ZNK2cv7MatSizeclEv(ptr noundef nonnull align 8 dereferenceable(8) %0) #6 comdat align 2 {
  %2 = alloca %"class.cv::Size_", align 4
  %3 = alloca ptr, align 8
  store ptr %0, ptr %3, align 8, !tbaa !112
  %4 = load ptr, ptr %3, align 8
  %5 = getelementptr inbounds nuw %"struct.cv::MatSize", ptr %4, i32 0, i32 0
  %6 = load ptr, ptr %5, align 8, !tbaa !114
  %7 = getelementptr inbounds i32, ptr %6, i64 1
  %8 = load i32, ptr %7, align 4, !tbaa !20
  %9 = getelementptr inbounds nuw %"struct.cv::MatSize", ptr %4, i32 0, i32 0
  %10 = load ptr, ptr %9, align 8, !tbaa !114
  %11 = getelementptr inbounds i32, ptr %10, i64 0
  %12 = load i32, ptr %11, align 4, !tbaa !20
  call void @_ZN2cv5Size_IiEC2Eii(ptr noundef nonnull align 4 dereferenceable(8) %2, i32 noundef %8, i32 noundef %12)
  %13 = load i64, ptr %2, align 4
  ret i64 %13
}

; Function Attrs: mustprogress nounwind uwtable
define linkonce_odr hidden void @_ZN2cv15ReduceC_InvokerIdddNS_8OpAddSqrIdddEENS_5OpSqrIdddEEEC2ERKNS_3MatERS6_RS2_RS4_(ptr noundef nonnull align 8 dereferenceable(40) %0, ptr noundef nonnull align 8 dereferenceable(96) %1, ptr noundef nonnull align 8 dereferenceable(96) %2, ptr noundef nonnull align 1 dereferenceable(1) %3, ptr noundef nonnull align 1 dereferenceable(1) %4) unnamed_addr #0 comdat align 2 {
  %6 = alloca ptr, align 8
  %7 = alloca ptr, align 8
  %8 = alloca ptr, align 8
  %9 = alloca ptr, align 8
  %10 = alloca ptr, align 8
  store ptr %0, ptr %6, align 8, !tbaa !1017
  store ptr %1, ptr %7, align 8, !tbaa !3
  store ptr %2, ptr %8, align 8, !tbaa !3
  store ptr %3, ptr %9, align 8, !tbaa !572
  store ptr %4, ptr %10, align 8, !tbaa !574
  %11 = load ptr, ptr %6, align 8
  call void @_ZN2cv16ParallelLoopBodyC2Ev(ptr noundef nonnull align 8 dereferenceable(8) %11) #14
  store ptr getelementptr inbounds inrange(-16, 24) ({ [5 x ptr] }, ptr @_ZTVN2cv15ReduceC_InvokerIdddNS_8OpAddSqrIdddEENS_5OpSqrIdddEEEE, i32 0, i32 0, i32 2), ptr %11, align 8, !tbaa !226
  %12 = getelementptr inbounds nuw %"class.cv::ReduceC_Invoker.84", ptr %11, i32 0, i32 1
  %13 = load ptr, ptr %7, align 8, !tbaa !3
  store ptr %13, ptr %12, align 8, !tbaa !3
  %14 = getelementptr inbounds nuw %"class.cv::ReduceC_Invoker.84", ptr %11, i32 0, i32 2
  %15 = load ptr, ptr %8, align 8, !tbaa !3
  store ptr %15, ptr %14, align 8, !tbaa !3
  %16 = getelementptr inbounds nuw %"class.cv::ReduceC_Invoker.84", ptr %11, i32 0, i32 3
  %17 = load ptr, ptr %9, align 8, !tbaa !572
  store ptr %17, ptr %16, align 8, !tbaa !572
  %18 = getelementptr inbounds nuw %"class.cv::ReduceC_Invoker.84", ptr %11, i32 0, i32 4
  %19 = load ptr, ptr %10, align 8, !tbaa !574
  store ptr %19, ptr %18, align 8, !tbaa !574
  ret void
}

; Function Attrs: mustprogress uwtable
define internal void @_ZN2cvL8reduceC_IddNS_8OpAddSqrIdddEENS_5OpSqrIdddEEEEvRKNS_3MatERS5_(ptr noundef nonnull align 8 dereferenceable(96) %0, ptr noundef nonnull align 8 dereferenceable(96) %1) #2 personality ptr @__gxx_personality_v0 {
  %3 = alloca ptr, align 8
  %4 = alloca ptr, align 8
  %5 = alloca %"struct.cv::OpAddSqr.48", align 1
  %6 = alloca %"struct.cv::OpSqr.49", align 1
  %7 = alloca %"class.cv::ReduceC_Invoker.84", align 8
  %8 = alloca %"class.cv::Range", align 4
  %9 = alloca %"class.cv::Size_", align 4
  %10 = alloca ptr, align 8
  %11 = alloca i32, align 4
  store ptr %0, ptr %3, align 8, !tbaa !3
  store ptr %1, ptr %4, align 8, !tbaa !3
  call void @llvm.lifetime.start.p0(i64 1, ptr %5) #14
  call void @llvm.lifetime.start.p0(i64 1, ptr %6) #14
  call void @llvm.lifetime.start.p0(i64 40, ptr %7) #14
  %12 = load ptr, ptr %3, align 8, !tbaa !3
  %13 = load ptr, ptr %4, align 8, !tbaa !3
  call void @_ZN2cv15ReduceC_InvokerIdddNS_8OpAddSqrIdddEENS_5OpSqrIdddEEEC2ERKNS_3MatERS6_RS2_RS4_(ptr noundef nonnull align 8 dereferenceable(40) %7, ptr noundef nonnull align 8 dereferenceable(96) %12, ptr noundef nonnull align 8 dereferenceable(96) %13, ptr noundef nonnull align 1 dereferenceable(1) %5, ptr noundef nonnull align 1 dereferenceable(1) %6)
  call void @llvm.lifetime.start.p0(i64 8, ptr %8) #14
  call void @llvm.lifetime.start.p0(i64 8, ptr %9) #14
  %14 = load ptr, ptr %3, align 8, !tbaa !3
  %15 = getelementptr inbounds nuw %"class.cv::Mat", ptr %14, i32 0, i32 10
  %16 = invoke i64 @_ZNK2cv7MatSizeclEv(ptr noundef nonnull align 8 dereferenceable(8) %15)
          to label %17 unwind label %22

17:                                               ; preds = %2
  store i64 %16, ptr %9, align 4
  %18 = getelementptr inbounds nuw %"class.cv::Size_", ptr %9, i32 0, i32 1
  %19 = load i32, ptr %18, align 4, !tbaa !101
  invoke void @_ZN2cv5RangeC2Eii(ptr noundef nonnull align 4 dereferenceable(8) %8, i32 noundef 0, i32 noundef %19)
          to label %20 unwind label %22

20:                                               ; preds = %17
  invoke void @_ZN2cv13parallel_for_ERKNS_5RangeERKNS_16ParallelLoopBodyEd(ptr noundef nonnull align 4 dereferenceable(8) %8, ptr noundef nonnull align 8 dereferenceable(8) %7, double noundef -1.000000e+00)
          to label %21 unwind label %22

21:                                               ; preds = %20
  call void @llvm.lifetime.end.p0(i64 8, ptr %9) #14
  call void @llvm.lifetime.end.p0(i64 8, ptr %8) #14
  call void @_ZN2cv16ParallelLoopBodyD2Ev(ptr noundef nonnull align 8 dereferenceable(40) %7) #14
  call void @llvm.lifetime.end.p0(i64 40, ptr %7) #14
  call void @llvm.lifetime.end.p0(i64 1, ptr %6) #14
  call void @llvm.lifetime.end.p0(i64 1, ptr %5) #14
  ret void

22:                                               ; preds = %20, %17, %2
  %23 = landingpad { ptr, i32 }
          cleanup
  %24 = extractvalue { ptr, i32 } %23, 0
  store ptr %24, ptr %10, align 8
  %25 = extractvalue { ptr, i32 } %23, 1
  store i32 %25, ptr %11, align 4
  call void @llvm.lifetime.end.p0(i64 8, ptr %9) #14
  call void @llvm.lifetime.end.p0(i64 8, ptr %8) #14
  call void @_ZN2cv16ParallelLoopBodyD2Ev(ptr noundef nonnull align 8 dereferenceable(40) %7) #14
  call void @llvm.lifetime.end.p0(i64 40, ptr %7) #14
  call void @llvm.lifetime.end.p0(i64 1, ptr %6) #14
  call void @llvm.lifetime.end.p0(i64 1, ptr %5) #14
  br label %26

26:                                               ; preds = %22
  %27 = load ptr, ptr %10, align 8
  %28 = load i32, ptr %11, align 4
  %29 = insertvalue { ptr, i32 } poison, ptr %27, 0
  %30 = insertvalue { ptr, i32 } %29, i32 %28, 1
  resume { ptr, i32 } %30
}